; Function Attrs: mustprogress nounwind uwtable
define void @_ZN6google8protobuf2io9TokenizerD2Ev(ptr noundef nonnull align 8 dereferenceable(192) %this) unnamed_addr #7 align 2 personality ptr @__gxx_personality_v0 {
entry:
  %buffer_size_ = getelementptr inbounds nuw i8, ptr %this, i64 144
  %0 = load i32, ptr %buffer_size_, align 8
  %buffer_pos_ = getelementptr inbounds nuw i8, ptr %this, i64 148
  %1 = load i32, ptr %buffer_pos_, align 4
  %cmp = icmp sgt i32 %0, %1
  br i1 %cmp, label %if.then, label %if.end

if.then:                                          ; preds = %entry
  %input_ = getelementptr inbounds nuw i8, ptr %this, i64 112
  %2 = load ptr, ptr %input_, align 8
  %sub = sub nsw i32 %0, %1
  %vtable = load ptr, ptr %2, align 8
  %vfn = getelementptr inbounds nuw i8, ptr %vtable, i64 24
  %3 = load ptr, ptr %vfn, align 8
  invoke void %3(ptr noundef nonnull align 8 dereferenceable(8) %2, i32 noundef %sub)
          to label %if.end unwind label %terminate.lpad

if.end:                                           ; preds = %if.then, %entry
  %text.i = getelementptr inbounds nuw i8, ptr %this, i64 64
  tail call void @_ZNSt7__cxx1112basic_stringIcSt11char_traitsIcESaIcEED1Ev(ptr noundef nonnull align 8 dereferenceable(32) %text.i) #23
  %text.i2 = getelementptr inbounds nuw i8, ptr %this, i64 8
  tail call void @_ZNSt7__cxx1112basic_stringIcSt11char_traitsIcESaIcEED1Ev(ptr noundef nonnull align 8 dereferenceable(32) %text.i2) #23
  ret void

terminate.lpad:                                   ; preds = %if.then
  %4 = landingpad { ptr, i32 }
          catch ptr null
  %5 = extractvalue { ptr, i32 } %4, 0
  tail call void @__clang_call_terminate(ptr %5) #22
  unreachable
}